	.file	"main.c"
	.option nopic
	.attribute arch, "rv32i2p0_m2p0_a2p0_f2p0_c2p0_p0p9_zpn0p9_zpsfoperand0p9_xtheade2p0"
	.attribute unaligned_access, 0
	.attribute stack_align, 16
	.text
.Ltext0:
	.cfi_sections	.debug_frame
	.section	.rodata.main.str1.4,"aMS",@progbits,1
	.align	2
.LC0:
	.string	"\r\n=== MQ135 Air Quality Monitor ===\r\n"
	.align	2
.LC1:
	.string	"adc"
	.align	2
.LC2:
	.string	"ADC device not found!\r\n"
	.align	2
.LC3:
	.string	"ADC initialized\r\n"
	.align	2
.LC4:
	.string	"Warming up MQ135 (10 seconds)...\r\n"
	.globl	__extendsfdf2
	.align	2
.LC7:
	.string	"Voltage: %.2f V  | Air Quality: CLEAN\r\n"
	.align	2
.LC9:
	.string	"Voltage: %.2f V  | Air Quality: MODERATE\r\n"
	.align	2
.LC11:
	.string	"Voltage: %.2f V  | Air Quality: POOR\r\n"
	.align	2
.LC12:
	.string	"Voltage: %.2f V  | Air Quality: VERY POOR\r\n"
	.section	.text.startup.main,"ax",@progbits
	.align	1
	.globl	main
	.type	main, @function
main:
.LFB5:
	.file 1 "./examples/peripherals/adc/aqi/main.c"
	.loc 1 11 1
	.cfi_startproc
	.loc 1 12 5
	.loc 1 11 1 is_stmt 0
	addi	sp,sp,-80
	.cfi_def_cfa_offset 80
	sw	ra,76(sp)
	sw	s0,72(sp)
	sw	s1,68(sp)
	sw	s2,64(sp)
	fsw	fs0,60(sp)
	fsw	fs1,56(sp)
	fsw	fs2,52(sp)
	fsw	fs3,48(sp)
	.cfi_offset 1, -4
	.cfi_offset 8, -8
	.cfi_offset 9, -12
	.cfi_offset 18, -16
	.cfi_offset 40, -20
	.cfi_offset 41, -24
	.cfi_offset 50, -28
	.cfi_offset 51, -32
	.loc 1 12 5
	call	board_init
.LVL0:
	.loc 1 14 5 is_stmt 1
	lui	a0,%hi(.LC0)
	addi	a0,a0,%lo(.LC0)
	call	printf
.LVL1:
	.loc 1 16 5
	.loc 1 16 11 is_stmt 0
	lui	a0,%hi(.LC1)
	addi	a0,a0,%lo(.LC1)
	call	qcc74x_device_get_by_name
.LVL2:
	.loc 1 16 9
	lui	s0,%hi(.LANCHOR0)
	sw	a0,%lo(.LANCHOR0)(s0)
	.loc 1 17 5 is_stmt 1
	.loc 1 17 8 is_stmt 0
	bne	a0,zero,.L2
	.loc 1 19 9 is_stmt 1
	lui	a0,%hi(.LC2)
	addi	a0,a0,%lo(.LC2)
	call	printf
.LVL3:
.L3:
	.loc 1 20 9 discriminator 1
	.loc 1 20 18 discriminator 1
	.loc 1 20 15 discriminator 1
	j	.L3
.L2:
	.loc 1 24 17 is_stmt 0
	li	a5,7
	sw	a5,28(sp)
	.loc 1 28 20
	li	a5,4
	sh	a5,32(sp)
	.loc 1 32 19
	li	a5,4096
	addi	a5,a5,1794
	.loc 1 35 5
	addi	a1,sp,28
	.loc 1 32 19
	sh	a5,20(sp)
	addi	s0,s0,%lo(.LANCHOR0)
	.loc 1 23 5 is_stmt 1
	.loc 1 24 5
	.loc 1 25 5
	.loc 1 26 5
	.loc 1 27 5
	.loc 1 28 5
	.loc 1 29 5
	.loc 1 31 5
	.loc 1 32 5
	.loc 1 33 5
	.loc 1 35 5
	call	qcc74x_adc_init
.LVL4:
	.loc 1 36 5
	lw	a0,0(s0)
	li	a2,1
	addi	a1,sp,20
	call	qcc74x_adc_channel_config
.LVL5:
	.loc 1 38 5
	lui	a0,%hi(.LC3)
	addi	a0,a0,%lo(.LC3)
	call	printf
.LVL6:
	.loc 1 39 5
	lui	a0,%hi(.LC4)
	addi	a0,a0,%lo(.LC4)
	call	printf
.LVL7:
	.loc 1 41 5
	li	a0,8192
	addi	a0,a0,1808
	call	qcc74x_mtimer_delay_ms
.LVL8:
.LBB2:
	.loc 1 58 15 is_stmt 0
	lui	a5,%hi(.LC5)
	flw	fs0,%lo(.LC5)(a5)
	.loc 1 60 12
	lui	a5,%hi(.LC6)
	flw	fs1,%lo(.LC6)(a5)
	.loc 1 64 17
	lui	a5,%hi(.LC8)
	flw	fs2,%lo(.LC8)(a5)
	.loc 1 68 17
	lui	a5,%hi(.LC10)
	flw	fs3,%lo(.LC10)(a5)
	.loc 1 74 13
	lui	s1,%hi(.LC12)
	.loc 1 70 13
	lui	s2,%hi(.LC11)
.L13:
.LBE2:
	.loc 1 43 5 is_stmt 1
	.loc 1 45 5
.LBB3:
	.loc 1 47 9
	lw	a0,0(s0)
	call	qcc74x_adc_start_conversion
.LVL9:
	.loc 1 49 9
.L4:
	.loc 1 49 15
	.loc 1 49 16 is_stmt 0
	lw	a0,0(s0)
	call	qcc74x_adc_get_count
.LVL10:
	.loc 1 49 15
	beq	a0,zero,.L5
	.loc 1 54 9 is_stmt 1
	.loc 1 54 29 is_stmt 0
	lw	a0,0(s0)
	call	qcc74x_adc_read_raw
.LVL11:
	.loc 1 54 18
	sw	a0,24(sp)
	.loc 1 55 9 is_stmt 1
	lw	a0,0(s0)
	li	a3,1
	addi	a2,sp,36
	addi	a1,sp,24
	call	qcc74x_adc_parse_result
.LVL12:
	.loc 1 56 9
	lw	a0,0(s0)
	call	qcc74x_adc_stop_conversion
.LVL13:
	.loc 1 58 9
	.loc 1 58 42 is_stmt 0
	lw	a5,44(sp)
	fcvt.s.w	fa0,a5
	.loc 1 58 15
	fdiv.s	fa0,fa0,fs0
.LVL14:
	.loc 1 60 9 is_stmt 1
	.loc 1 60 12 is_stmt 0
	flt.s	a5,fa0,fs1
	beq	a5,zero,.L17
	.loc 1 62 13 is_stmt 1
	call	__extendsfdf2
.LVL15:
	mv	a2,a0
	lui	a0,%hi(.LC7)
	mv	a3,a1
	addi	a0,a0,%lo(.LC7)
.L21:
	.loc 1 74 13 is_stmt 0
	call	printf
.LVL16:
	.loc 1 77 9 is_stmt 1
	li	a0,1000
	call	qcc74x_mtimer_delay_ms
.LVL17:
.LBE3:
	.loc 1 45 11
	.loc 1 46 5 is_stmt 0
	j	.L13
.L5:
.LBB4:
	.loc 1 51 13 is_stmt 1
	li	a0,1
	call	qcc74x_mtimer_delay_ms
.LVL18:
	j	.L4
.LVL19:
.L17:
	.loc 1 64 14
	.loc 1 62 13 is_stmt 0
	fsw	fa0,12(sp)
	call	__extendsfdf2
.LVL20:
	.loc 1 64 17
	flw	fa0,12(sp)
	.loc 1 62 13
	mv	a2,a0
	mv	a3,a1
	.loc 1 64 17
	flt.s	a5,fa0,fs2
	beq	a5,zero,.L18
.LVL21:
	.loc 1 66 13 is_stmt 1
	lui	a0,%hi(.LC9)
	addi	a0,a0,%lo(.LC9)
	j	.L21
.L18:
	.loc 1 68 14
	.loc 1 68 17 is_stmt 0
	flt.s	a5,fa0,fs3
	.loc 1 70 13
	addi	a0,s2,%lo(.LC11)
	.loc 1 68 17
	bne	a5,zero,.L21
	.loc 1 74 13 is_stmt 1
	addi	a0,s1,%lo(.LC12)
	j	.L21
.LBE4:
	.cfi_endproc
.LFE5:
	.size	main, .-main
	.globl	adc
	.section	.rodata.cst4,"aM",@progbits,4
	.align	2
.LC5:
	.word	1148846080
	.align	2
.LC6:
	.word	1065353216
	.align	2
.LC8:
	.word	1073741824
	.align	2
.LC10:
	.word	1077097267
	.section	.bss.adc,"aw",@nobits
	.align	2
	.set	.LANCHOR0,. + 0
	.type	adc, @object
	.size	adc, 4
adc:
	.zero	4
	.text
.Letext0:
	.file 2 "/usr/bin/linux_x86_64/riscv64-unknown-elf/include/machine/_default_types.h"
	.file 3 "/usr/bin/linux_x86_64/riscv64-unknown-elf/include/sys/_stdint.h"
	.file 4 "./drivers/lhal/include/qcc74x_core.h"
	.file 5 "./drivers/lhal/include/qcc74x_adc.h"
	.file 6 "/usr/bin/linux_x86_64/riscv64-unknown-elf/include/stdio.h"
	.file 7 "./drivers/lhal/include/qcc74x_mtimer.h"
	.file 8 "./bsp/board/qcc74xdk/./board.h"